; Function Attrs: mustprogress uwtable
define void @_ZN11ImageViewer11createMenusEv(ptr noundef nonnull align 8 dereferenceable(160) %0) local_unnamed_addr #0 align 2 personality ptr @__gxx_personality_v0 {
  %2 = alloca %class.QString, align 8
  %3 = tail call noalias noundef nonnull dereferenceable(40) ptr @_Znwm(i64 noundef 40) #8
  call void @llvm.lifetime.start.p0(i64 24, ptr nonnull %2) #9
  invoke void @_ZNK11QMetaObject2trEPKcS1_i(ptr dead_on_unwind nonnull writable sret(%class.QString) align 8 %2, ptr noundef nonnull align 8 dereferenceable(56) @_ZN11ImageViewer16staticMetaObjectE, ptr noundef nonnull @.str.18, ptr noundef null, i32 noundef -1)
          to label %_ZN11ImageViewer2trEPKcS1_i.exit unwind label %27

_ZN11ImageViewer2trEPKcS1_i.exit:                 ; preds = %1
  invoke void @_ZN5QMenuC1ERK7QStringP7QWidget(ptr noundef nonnull align 8 dereferenceable(40) %3, ptr noundef nonnull align 8 dereferenceable(24) %2, ptr noundef nonnull %0)
          to label %4 unwind label %29

4:                                                ; preds = %_ZN11ImageViewer2trEPKcS1_i.exit
  %5 = getelementptr inbounds nuw i8, ptr %0, i64 152
  store ptr %3, ptr %5, align 8, !tbaa !86
  %6 = load ptr, ptr %2, align 8, !tbaa !26
  %.not.i.i.i = icmp eq ptr %6, null
  br i1 %.not.i.i.i, label %_ZN7QStringD2Ev.exit, label %_ZN17QArrayDataPointerIDsE5derefEv.exit.i.i

_ZN17QArrayDataPointerIDsE5derefEv.exit.i.i:      ; preds = %4
  %7 = atomicrmw sub ptr %6, i32 1 seq_cst, align 4
  %.not.i.i = icmp eq i32 %7, 1
  br i1 %.not.i.i, label %8, label %_ZN7QStringD2Ev.exit

8:                                                ; preds = %_ZN17QArrayDataPointerIDsE5derefEv.exit.i.i
  %9 = load ptr, ptr %2, align 8, !tbaa !26
  call void @_ZN10QArrayData10deallocateEPS_xx(ptr noundef %9, i64 noundef 2, i64 noundef 8) #9
  br label %_ZN7QStringD2Ev.exit

_ZN7QStringD2Ev.exit:                             ; preds = %4, %_ZN17QArrayDataPointerIDsE5derefEv.exit.i.i, %8
  call void @llvm.lifetime.end.p0(i64 24, ptr nonnull %2) #9
  %10 = load ptr, ptr %5, align 8, !tbaa !86
  %11 = getelementptr inbounds nuw i8, ptr %0, i64 104
  %12 = load ptr, ptr %11, align 8, !tbaa !58
  call void @_ZN7QWidget9addActionEP7QAction(ptr noundef nonnull align 8 dereferenceable(40) %10, ptr noundef %12)
  %13 = load ptr, ptr %5, align 8, !tbaa !86
  %14 = getelementptr inbounds nuw i8, ptr %0, i64 112
  %15 = load ptr, ptr %14, align 8, !tbaa !62
  call void @_ZN7QWidget9addActionEP7QAction(ptr noundef nonnull align 8 dereferenceable(40) %13, ptr noundef %15)
  %16 = load ptr, ptr %5, align 8, !tbaa !86
  %17 = getelementptr inbounds nuw i8, ptr %0, i64 120
  %18 = load ptr, ptr %17, align 8, !tbaa !66
  call void @_ZN7QWidget9addActionEP7QAction(ptr noundef nonnull align 8 dereferenceable(40) %16, ptr noundef %18)
  %19 = load ptr, ptr %5, align 8, !tbaa !86
  %20 = call noundef ptr @_ZN5QMenu12addSeparatorEv(ptr noundef nonnull align 8 dereferenceable(40) %19)
  %21 = load ptr, ptr %5, align 8, !tbaa !86
  %22 = getelementptr inbounds nuw i8, ptr %0, i64 128
  %23 = load ptr, ptr %22, align 8, !tbaa !70
  call void @_ZN7QWidget9addActionEP7QAction(ptr noundef nonnull align 8 dereferenceable(40) %21, ptr noundef %23)
  %24 = call noundef ptr @_ZNK11QMainWindow7menuBarEv(ptr noundef nonnull align 8 dereferenceable(40) %0)
  %25 = load ptr, ptr %5, align 8, !tbaa !86
  %26 = call noundef ptr @_ZN8QMenuBar7addMenuEP5QMenu(ptr noundef nonnull align 8 dereferenceable(40) %24, ptr noundef %25)
  ret void

27:                                               ; preds = %1
  %28 = landingpad { ptr, i32 }
          cleanup
  br label %_ZN7QStringD2Ev.exit8

29:                                               ; preds = %_ZN11ImageViewer2trEPKcS1_i.exit
  %30 = landingpad { ptr, i32 }
          cleanup
  %31 = load ptr, ptr %2, align 8, !tbaa !26
  %.not.i.i.i5 = icmp eq ptr %31, null
  br i1 %.not.i.i.i5, label %_ZN7QStringD2Ev.exit8, label %_ZN17QArrayDataPointerIDsE5derefEv.exit.i.i6

_ZN17QArrayDataPointerIDsE5derefEv.exit.i.i6:     ; preds = %29
  %32 = atomicrmw sub ptr %31, i32 1 seq_cst, align 4
  %.not.i.i7 = icmp eq i32 %32, 1
  br i1 %.not.i.i7, label %33, label %_ZN7QStringD2Ev.exit8

33:                                               ; preds = %_ZN17QArrayDataPointerIDsE5derefEv.exit.i.i6
  %34 = load ptr, ptr %2, align 8, !tbaa !26
  call void @_ZN10QArrayData10deallocateEPS_xx(ptr noundef %34, i64 noundef 2, i64 noundef 8) #9
  br label %_ZN7QStringD2Ev.exit8

_ZN7QStringD2Ev.exit8:                            ; preds = %33, %_ZN17QArrayDataPointerIDsE5derefEv.exit.i.i6, %29, %27
  %.pn = phi { ptr, i32 } [ %28, %27 ], [ %30, %29 ], [ %30, %_ZN17QArrayDataPointerIDsE5derefEv.exit.i.i6 ], [ %30, %33 ]
  call void @llvm.lifetime.end.p0(i64 24, ptr nonnull %2) #9
  call void @_ZdlPvm(ptr noundef nonnull %3, i64 noundef 40) #10
  resume { ptr, i32 } %.pn
}